target datalayout = "e-m:e-p270:32:32-p271:32:32-p272:64:64-i64:64-i128:128-f80:128-n8:16:32:64-S128"
target triple = "x86_64-pc-linux-gnu"

; Function Attrs: nounwind uwtable
define internal i32 @cbuf_get_fd(ptr noundef %0, ptr noundef %1, i32 noundef %2) #0 {
  %4 = alloca ptr, align 8
  %5 = alloca ptr, align 8
  %6 = alloca i32, align 4
  %7 = alloca i32, align 4
  store ptr %0, ptr %4, align 8
  store ptr %1, ptr %5, align 8
  store i32 %2, ptr %6, align 4
  call void @llvm.lifetime.start.p0(i64 4, ptr %7) #8
  br label %8

8:                                                ; preds = %23, %3
  %9 = load ptr, ptr %5, align 8
  %10 = load i32, ptr %9, align 4
  %11 = load ptr, ptr %4, align 8
  %12 = load i32, ptr %6, align 4
  %13 = sext i32 %12 to i64
  %14 = call i64 @read(i32 noundef %10, ptr noundef %11, i64 noundef %13)
  %15 = trunc i64 %14 to i32
  store i32 %15, ptr %7, align 4
  br label %16

16:                                               ; preds = %8
  %17 = load i32, ptr %7, align 4
  %18 = icmp slt i32 %17, 0
  br i1 %18, label %19, label %23

19:                                               ; preds = %16
  %20 = call ptr @__errno_location() #9
  %21 = load i32, ptr %20, align 4
  %22 = icmp eq i32 %21, 4
  br label %23

23:                                               ; preds = %19, %16
  %24 = phi i1 [ false, %16 ], [ %22, %19 ]
  br i1 %24, label %8, label %25, !llvm.loop !16

25:                                               ; preds = %23
  %26 = load i32, ptr %7, align 4
  call void @llvm.lifetime.end.p0(i64 4, ptr %7) #8
  ret i32 %26
}