; Function Attrs: nofree nounwind uwtable
define internal noundef i32 @cbuf_get_fd(ptr noundef captures(none) %0, ptr noundef readonly captures(none) %1, i32 noundef %2) #9 {
  %4 = sext i32 %2 to i64
  br label %5

5:                                                ; preds = %10, %3
  %6 = load i32, ptr %1, align 4
  %7 = tail call i64 @read(i32 noundef %6, ptr noundef %0, i64 noundef %4) #15
  %8 = trunc i64 %7 to i32
  %9 = icmp slt i32 %8, 0
  br i1 %9, label %10, label %.critedge

10:                                               ; preds = %5
  %11 = tail call ptr @__errno_location() #14
  %12 = load i32, ptr %11, align 4
  %13 = icmp eq i32 %12, 4
  br i1 %13, label %5, label %.critedge, !llvm.loop !17

.critedge:                                        ; preds = %5, %10
  ret i32 %8
}